target datalayout = "e-m:e-p270:32:32-p271:32:32-p272:64:64-i64:64-i128:128-f80:128-n8:16:32:64-S128"
target triple = "x86_64-pc-linux-gnu"

%struct.xcgroup_ns_t = type { ptr, ptr, ptr, ptr }
%struct.xcgroup_t = type { ptr, ptr, ptr, i32, i32, i32 }

@g_user_cgpath = internal global [5 x [4096 x i8]] zeroinitializer, align 16
@g_job_cgpath = internal global [5 x [4096 x i8]] zeroinitializer, align 16
@g_step_cgpath = internal global [5 x [4096 x i8]] zeroinitializer, align 16
@g_step_active_cnt = internal global [5 x i16] zeroinitializer, align 2
@g_cg_ns = internal global [5 x %struct.xcgroup_ns_t] zeroinitializer, align 16
@int_cg = internal global [5 x [9 x %struct.xcgroup_t]] zeroinitializer, align 16
@.str.7 = private unnamed_addr constant [21 x i8] c"memory.use_hierarchy\00", align 1
@.str.8 = private unnamed_addr constant [2 x i8] c"1\00", align 1
@.str.9 = private unnamed_addr constant [34 x i8] c"cgroup subsystem %u not supported\00", align 1
@.str.19 = private unnamed_addr constant [25 x i8] c"common_cgroup_lock error\00", align 1
@__func__.cgroup_p_step_create = private unnamed_addr constant [21 x i8] c"cgroup_p_step_create\00", align 1
@.str.20 = private unnamed_addr constant [45 x i8] c"unable to set hierarchical accounting for %s\00", align 1

; Function Attrs: nounwind uwtable
define dso_local i32 @cgroup_p_step_create(i32 noundef %0, ptr noundef %1) #0 {
  %3 = alloca i32, align 4
  %4 = alloca i32, align 4
  %5 = alloca ptr, align 8
  %6 = alloca i32, align 4
  %7 = alloca i32, align 4
  store i32 %0, ptr %4, align 4
  store ptr %1, ptr %5, align 8
  call void @llvm.lifetime.start.p0(i64 4, ptr %6) #7
  store i32 0, ptr %6, align 4
  %8 = load i32, ptr %4, align 4
  %9 = zext i32 %8 to i64
  %10 = getelementptr inbounds nuw [5 x [9 x %struct.xcgroup_t]], ptr @int_cg, i64 0, i64 %9
  %11 = getelementptr inbounds [9 x %struct.xcgroup_t], ptr %10, i64 0, i64 0
  %12 = call i32 @common_cgroup_lock(ptr noundef %11)
  %13 = icmp ne i32 %12, 0
  br i1 %13, label %14, label %16

14:                                               ; preds = %2
  %15 = call i32 (ptr, ...) @error(ptr noundef @.str.19)
  store i32 -1, ptr %3, align 4
  store i32 1, ptr %7, align 4
  br label %199

16:                                               ; preds = %2
  %17 = load i32, ptr %4, align 4
  %18 = zext i32 %17 to i64
  %19 = getelementptr inbounds nuw [5 x i16], ptr @g_step_active_cnt, i64 0, i64 %18
  %20 = load i16, ptr %19, align 2
  %21 = add i16 %20, 1
  store i16 %21, ptr %19, align 2
  %22 = load i32, ptr %4, align 4
  switch i32 %22, label %177 [
    i32 0, label %23
    i32 1, label %48
    i32 2, label %54
    i32 3, label %127
    i32 4, label %152
  ]

23:                                               ; preds = %16
  %24 = load ptr, ptr %5, align 8
  %25 = load i32, ptr %4, align 4
  %26 = zext i32 %25 to i64
  %27 = getelementptr inbounds nuw [5 x %struct.xcgroup_ns_t], ptr @g_cg_ns, i64 0, i64 %26
  %28 = load i32, ptr %4, align 4
  %29 = zext i32 %28 to i64
  %30 = getelementptr inbounds nuw [5 x [9 x %struct.xcgroup_t]], ptr @int_cg, i64 0, i64 %29
  %31 = getelementptr inbounds [9 x %struct.xcgroup_t], ptr %30, i64 0, i64 0
  %32 = load i32, ptr %4, align 4
  %33 = zext i32 %32 to i64
  %34 = getelementptr inbounds nuw [5 x [4096 x i8]], ptr @g_job_cgpath, i64 0, i64 %33
  %35 = getelementptr inbounds [4096 x i8], ptr %34, i64 0, i64 0
  %36 = load i32, ptr %4, align 4
  %37 = zext i32 %36 to i64
  %38 = getelementptr inbounds nuw [5 x [4096 x i8]], ptr @g_step_cgpath, i64 0, i64 %37
  %39 = getelementptr inbounds [4096 x i8], ptr %38, i64 0, i64 0
  %40 = load i32, ptr %4, align 4
  %41 = zext i32 %40 to i64
  %42 = getelementptr inbounds nuw [5 x [4096 x i8]], ptr @g_user_cgpath, i64 0, i64 %41
  %43 = getelementptr inbounds [4096 x i8], ptr %42, i64 0, i64 0
  %44 = call i32 @xcgroup_create_hierarchy(ptr noundef @__func__.cgroup_p_step_create, ptr noundef %24, ptr noundef %27, ptr noundef %31, ptr noundef %35, ptr noundef %39, ptr noundef %43)
  store i32 %44, ptr %6, align 4
  %45 = icmp ne i32 %44, 0
  br i1 %45, label %46, label %47

46:                                               ; preds = %23
  br label %187

47:                                               ; preds = %23
  br label %180

48:                                               ; preds = %16
  %49 = load ptr, ptr %5, align 8
  %50 = call i32 @_cpuset_create(ptr noundef %49)
  store i32 %50, ptr %6, align 4
  %51 = icmp ne i32 %50, 0
  br i1 %51, label %52, label %53

52:                                               ; preds = %48
  br label %187

53:                                               ; preds = %48
  br label %180

54:                                               ; preds = %16
  %55 = load ptr, ptr %5, align 8
  %56 = load i32, ptr %4, align 4
  %57 = zext i32 %56 to i64
  %58 = getelementptr inbounds nuw [5 x %struct.xcgroup_ns_t], ptr @g_cg_ns, i64 0, i64 %57
  %59 = load i32, ptr %4, align 4
  %60 = zext i32 %59 to i64
  %61 = getelementptr inbounds nuw [5 x [9 x %struct.xcgroup_t]], ptr @int_cg, i64 0, i64 %60
  %62 = getelementptr inbounds [9 x %struct.xcgroup_t], ptr %61, i64 0, i64 0
  %63 = load i32, ptr %4, align 4
  %64 = zext i32 %63 to i64
  %65 = getelementptr inbounds nuw [5 x [4096 x i8]], ptr @g_job_cgpath, i64 0, i64 %64
  %66 = getelementptr inbounds [4096 x i8], ptr %65, i64 0, i64 0
  %67 = load i32, ptr %4, align 4
  %68 = zext i32 %67 to i64
  %69 = getelementptr inbounds nuw [5 x [4096 x i8]], ptr @g_step_cgpath, i64 0, i64 %68
  %70 = getelementptr inbounds [4096 x i8], ptr %69, i64 0, i64 0
  %71 = load i32, ptr %4, align 4
  %72 = zext i32 %71 to i64
  %73 = getelementptr inbounds nuw [5 x [4096 x i8]], ptr @g_user_cgpath, i64 0, i64 %72
  %74 = getelementptr inbounds [4096 x i8], ptr %73, i64 0, i64 0
  %75 = call i32 @xcgroup_create_hierarchy(ptr noundef @__func__.cgroup_p_step_create, ptr noundef %55, ptr noundef %58, ptr noundef %62, ptr noundef %66, ptr noundef %70, ptr noundef %74)
  store i32 %75, ptr %6, align 4
  %76 = icmp ne i32 %75, 0
  br i1 %76, label %77, label %78

77:                                               ; preds = %54
  br label %187

78:                                               ; preds = %54
  %79 = load i32, ptr %4, align 4
  %80 = zext i32 %79 to i64
  %81 = getelementptr inbounds nuw [5 x [9 x %struct.xcgroup_t]], ptr @int_cg, i64 0, i64 %80
  %82 = getelementptr inbounds [9 x %struct.xcgroup_t], ptr %81, i64 0, i64 2
  %83 = call i32 @common_cgroup_set_param(ptr noundef %82, ptr noundef @.str.7, ptr noundef @.str.8)
  store i32 %83, ptr %6, align 4
  %84 = icmp ne i32 %83, 0
  br i1 %84, label %85, label %93

85:                                               ; preds = %78
  %86 = load i32, ptr %4, align 4
  %87 = zext i32 %86 to i64
  %88 = getelementptr inbounds nuw [5 x [4096 x i8]], ptr @g_user_cgpath, i64 0, i64 %87
  %89 = getelementptr inbounds [4096 x i8], ptr %88, i64 0, i64 0
  %90 = call i32 (ptr, ...) @error(ptr noundef @.str.20, ptr noundef %89)
  %91 = load i32, ptr %4, align 4
  %92 = call i32 @_step_destroy_internal(i32 noundef %91, i1 noundef zeroext true)
  br label %180

93:                                               ; preds = %78
  %94 = load i32, ptr %4, align 4
  %95 = zext i32 %94 to i64
  %96 = getelementptr inbounds nuw [5 x [9 x %struct.xcgroup_t]], ptr @int_cg, i64 0, i64 %95
  %97 = getelementptr inbounds [9 x %struct.xcgroup_t], ptr %96, i64 0, i64 3
  %98 = call i32 @common_cgroup_set_param(ptr noundef %97, ptr noundef @.str.7, ptr noundef @.str.8)
  store i32 %98, ptr %6, align 4
  %99 = icmp ne i32 %98, 0
  br i1 %99, label %100, label %108

100:                                              ; preds = %93
  %101 = load i32, ptr %4, align 4
  %102 = zext i32 %101 to i64
  %103 = getelementptr inbounds nuw [5 x [4096 x i8]], ptr @g_job_cgpath, i64 0, i64 %102
  %104 = getelementptr inbounds [4096 x i8], ptr %103, i64 0, i64 0
  %105 = call i32 (ptr, ...) @error(ptr noundef @.str.20, ptr noundef %104)
  %106 = load i32, ptr %4, align 4
  %107 = call i32 @_step_destroy_internal(i32 noundef %106, i1 noundef zeroext true)
  br label %180

108:                                              ; preds = %93
  %109 = load i32, ptr %4, align 4
  %110 = zext i32 %109 to i64
  %111 = getelementptr inbounds nuw [5 x [9 x %struct.xcgroup_t]], ptr @int_cg, i64 0, i64 %110
  %112 = getelementptr inbounds [9 x %struct.xcgroup_t], ptr %111, i64 0, i64 4
  %113 = call i32 @common_cgroup_set_param(ptr noundef %112, ptr noundef @.str.7, ptr noundef @.str.8)
  %114 = icmp ne i32 %113, 0
  %115 = zext i1 %114 to i32
  store i32 %115, ptr %6, align 4
  br i1 %114, label %116, label %126

116:                                              ; preds = %108
  %117 = load i32, ptr %4, align 4
  %118 = zext i32 %117 to i64
  %119 = getelementptr inbounds nuw [5 x [9 x %struct.xcgroup_t]], ptr @int_cg, i64 0, i64 %118
  %120 = getelementptr inbounds [9 x %struct.xcgroup_t], ptr %119, i64 0, i64 4
  %121 = getelementptr inbounds nuw %struct.xcgroup_t, ptr %120, i32 0, i32 2
  %122 = load ptr, ptr %121, align 8
  %123 = call i32 (ptr, ...) @error(ptr noundef @.str.20, ptr noundef %122)
  %124 = load i32, ptr %4, align 4
  %125 = call i32 @_step_destroy_internal(i32 noundef %124, i1 noundef zeroext true)
  br label %180

126:                                              ; preds = %108
  br label %180

127:                                              ; preds = %16
  %128 = load ptr, ptr %5, align 8
  %129 = load i32, ptr %4, align 4
  %130 = zext i32 %129 to i64
  %131 = getelementptr inbounds nuw [5 x %struct.xcgroup_ns_t], ptr @g_cg_ns, i64 0, i64 %130
  %132 = load i32, ptr %4, align 4
  %133 = zext i32 %132 to i64
  %134 = getelementptr inbounds nuw [5 x [9 x %struct.xcgroup_t]], ptr @int_cg, i64 0, i64 %133
  %135 = getelementptr inbounds [9 x %struct.xcgroup_t], ptr %134, i64 0, i64 0
  %136 = load i32, ptr %4, align 4
  %137 = zext i32 %136 to i64
  %138 = getelementptr inbounds nuw [5 x [4096 x i8]], ptr @g_job_cgpath, i64 0, i64 %137
  %139 = getelementptr inbounds [4096 x i8], ptr %138, i64 0, i64 0
  %140 = load i32, ptr %4, align 4
  %141 = zext i32 %140 to i64
  %142 = getelementptr inbounds nuw [5 x [4096 x i8]], ptr @g_step_cgpath, i64 0, i64 %141
  %143 = getelementptr inbounds [4096 x i8], ptr %142, i64 0, i64 0
  %144 = load i32, ptr %4, align 4
  %145 = zext i32 %144 to i64
  %146 = getelementptr inbounds nuw [5 x [4096 x i8]], ptr @g_user_cgpath, i64 0, i64 %145
  %147 = getelementptr inbounds [4096 x i8], ptr %146, i64 0, i64 0
  %148 = call i32 @xcgroup_create_hierarchy(ptr noundef @__func__.cgroup_p_step_create, ptr noundef %128, ptr noundef %131, ptr noundef %135, ptr noundef %139, ptr noundef %143, ptr noundef %147)
  store i32 %148, ptr %6, align 4
  %149 = icmp ne i32 %148, 0
  br i1 %149, label %150, label %151

150:                                              ; preds = %127
  br label %187

151:                                              ; preds = %127
  br label %180

152:                                              ; preds = %16
  %153 = load ptr, ptr %5, align 8
  %154 = load i32, ptr %4, align 4
  %155 = zext i32 %154 to i64
  %156 = getelementptr inbounds nuw [5 x %struct.xcgroup_ns_t], ptr @g_cg_ns, i64 0, i64 %155
  %157 = load i32, ptr %4, align 4
  %158 = zext i32 %157 to i64
  %159 = getelementptr inbounds nuw [5 x [9 x %struct.xcgroup_t]], ptr @int_cg, i64 0, i64 %158
  %160 = getelementptr inbounds [9 x %struct.xcgroup_t], ptr %159, i64 0, i64 0
  %161 = load i32, ptr %4, align 4
  %162 = zext i32 %161 to i64
  %163 = getelementptr inbounds nuw [5 x [4096 x i8]], ptr @g_job_cgpath, i64 0, i64 %162
  %164 = getelementptr inbounds [4096 x i8], ptr %163, i64 0, i64 0
  %165 = load i32, ptr %4, align 4
  %166 = zext i32 %165 to i64
  %167 = getelementptr inbounds nuw [5 x [4096 x i8]], ptr @g_step_cgpath, i64 0, i64 %166
  %168 = getelementptr inbounds [4096 x i8], ptr %167, i64 0, i64 0
  %169 = load i32, ptr %4, align 4
  %170 = zext i32 %169 to i64
  %171 = getelementptr inbounds nuw [5 x [4096 x i8]], ptr @g_user_cgpath, i64 0, i64 %170
  %172 = getelementptr inbounds [4096 x i8], ptr %171, i64 0, i64 0
  %173 = call i32 @xcgroup_create_hierarchy(ptr noundef @__func__.cgroup_p_step_create, ptr noundef %153, ptr noundef %156, ptr noundef %160, ptr noundef %164, ptr noundef %168, ptr noundef %172)
  store i32 %173, ptr %6, align 4
  %174 = icmp ne i32 %173, 0
  br i1 %174, label %175, label %176

175:                                              ; preds = %152
  br label %187

176:                                              ; preds = %152
  br label %180

177:                                              ; preds = %16
  %178 = load i32, ptr %4, align 4
  %179 = call i32 (ptr, ...) @error(ptr noundef @.str.9, i32 noundef %178)
  store i32 -1, ptr %6, align 4
  br label %187

180:                                              ; preds = %176, %151, %126, %116, %100, %85, %53, %47
  %181 = load i32, ptr %4, align 4
  %182 = zext i32 %181 to i64
  %183 = getelementptr inbounds nuw [5 x [9 x %struct.xcgroup_t]], ptr @int_cg, i64 0, i64 %182
  %184 = getelementptr inbounds [9 x %struct.xcgroup_t], ptr %183, i64 0, i64 0
  %185 = call i32 @common_cgroup_unlock(ptr noundef %184)
  %186 = load i32, ptr %6, align 4
  store i32 %186, ptr %3, align 4
  store i32 1, ptr %7, align 4
  br label %199

187:                                              ; preds = %177, %175, %150, %77, %52, %46
  %188 = load i32, ptr %4, align 4
  %189 = zext i32 %188 to i64
  %190 = getelementptr inbounds nuw [5 x [9 x %struct.xcgroup_t]], ptr @int_cg, i64 0, i64 %189
  %191 = getelementptr inbounds [9 x %struct.xcgroup_t], ptr %190, i64 0, i64 0
  %192 = call i32 @common_cgroup_unlock(ptr noundef %191)
  %193 = load i32, ptr %4, align 4
  %194 = zext i32 %193 to i64
  %195 = getelementptr inbounds nuw [5 x i16], ptr @g_step_active_cnt, i64 0, i64 %194
  %196 = load i16, ptr %195, align 2
  %197 = add i16 %196, -1
  store i16 %197, ptr %195, align 2
  %198 = load i32, ptr %6, align 4
  store i32 %198, ptr %3, align 4
  store i32 1, ptr %7, align 4
  br label %199

199:                                              ; preds = %187, %180, %14
  call void @llvm.lifetime.end.p0(i64 4, ptr %6) #7
  %200 = load i32, ptr %3, align 4
  ret i32 %200
}