; Function Attrs: nounwind uwtable
define dso_local i32 @cgroup_p_step_create(i32 noundef %0, ptr noundef %1) local_unnamed_addr #0 {
  %3 = zext i32 %0 to i64
  %4 = getelementptr inbounds nuw [5 x [9 x %struct.xcgroup_t]], ptr @int_cg, i64 0, i64 %3
  %5 = tail call i32 @common_cgroup_lock(ptr noundef nonnull %4) #11
  %.not = icmp eq i32 %5, 0
  br i1 %.not, label %8, label %6

6:                                                ; preds = %2
  %7 = tail call i32 (ptr, ...) @error(ptr noundef nonnull @.str.19) #11
  br label %60

8:                                                ; preds = %2
  %9 = getelementptr inbounds nuw [5 x i16], ptr @g_step_active_cnt, i64 0, i64 %3
  %10 = load i16, ptr %9, align 2
  %11 = add i16 %10, 1
  store i16 %11, ptr %9, align 2
  switch i32 %0, label %50 [
    i32 0, label %12
    i32 1, label %18
    i32 2, label %20
    i32 3, label %38
    i32 4, label %44
  ]

12:                                               ; preds = %8
  %13 = getelementptr inbounds nuw [5 x %struct.xcgroup_ns_t], ptr @g_cg_ns, i64 0, i64 %3
  %14 = getelementptr inbounds nuw [5 x [4096 x i8]], ptr @g_job_cgpath, i64 0, i64 %3
  %15 = getelementptr inbounds nuw [5 x [4096 x i8]], ptr @g_step_cgpath, i64 0, i64 %3
  %16 = getelementptr inbounds nuw [5 x [4096 x i8]], ptr @g_user_cgpath, i64 0, i64 %3
  %17 = tail call i32 @xcgroup_create_hierarchy(ptr noundef nonnull @__func__.cgroup_p_step_create, ptr noundef %1, ptr noundef nonnull %13, ptr noundef nonnull %4, ptr noundef nonnull %14, ptr noundef nonnull %15, ptr noundef nonnull %16) #11
  %.not62 = icmp eq i32 %17, 0
  br i1 %.not62, label %54, label %56

18:                                               ; preds = %8
  %19 = tail call fastcc i32 @_cpuset_create(ptr noundef %1)
  %.not61 = icmp eq i32 %19, 0
  br i1 %.not61, label %54, label %56

20:                                               ; preds = %8
  %21 = getelementptr inbounds nuw [5 x %struct.xcgroup_ns_t], ptr @g_cg_ns, i64 0, i64 %3
  %22 = getelementptr inbounds nuw [5 x [4096 x i8]], ptr @g_job_cgpath, i64 0, i64 %3
  %23 = getelementptr inbounds nuw [5 x [4096 x i8]], ptr @g_step_cgpath, i64 0, i64 %3
  %24 = getelementptr inbounds nuw [5 x [4096 x i8]], ptr @g_user_cgpath, i64 0, i64 %3
  %25 = tail call i32 @xcgroup_create_hierarchy(ptr noundef nonnull @__func__.cgroup_p_step_create, ptr noundef %1, ptr noundef nonnull %21, ptr noundef nonnull %4, ptr noundef nonnull %22, ptr noundef nonnull %23, ptr noundef nonnull %24) #11
  %.not58 = icmp eq i32 %25, 0
  br i1 %.not58, label %26, label %56

26:                                               ; preds = %20
  %27 = getelementptr inbounds nuw i8, ptr %4, i64 80
  %28 = tail call i32 @common_cgroup_set_param(ptr noundef nonnull %27, ptr noundef nonnull @.str.7, ptr noundef nonnull @.str.8) #11
  %.not59 = icmp eq i32 %28, 0
  br i1 %.not59, label %29, label %.sink.split

29:                                               ; preds = %26
  %30 = getelementptr inbounds nuw i8, ptr %4, i64 120
  %31 = tail call i32 @common_cgroup_set_param(ptr noundef nonnull %30, ptr noundef nonnull @.str.7, ptr noundef nonnull @.str.8) #11
  %.not60 = icmp eq i32 %31, 0
  br i1 %.not60, label %32, label %.sink.split

32:                                               ; preds = %29
  %33 = getelementptr inbounds nuw i8, ptr %4, i64 160
  %34 = tail call i32 @common_cgroup_set_param(ptr noundef nonnull %33, ptr noundef nonnull @.str.7, ptr noundef nonnull @.str.8) #11
  %.not63 = icmp eq i32 %34, 0
  br i1 %.not63, label %54, label %35

35:                                               ; preds = %32
  %36 = getelementptr inbounds nuw i8, ptr %4, i64 176
  %37 = load ptr, ptr %36, align 8
  br label %.sink.split

38:                                               ; preds = %8
  %39 = getelementptr inbounds nuw [5 x %struct.xcgroup_ns_t], ptr @g_cg_ns, i64 0, i64 %3
  %40 = getelementptr inbounds nuw [5 x [4096 x i8]], ptr @g_job_cgpath, i64 0, i64 %3
  %41 = getelementptr inbounds nuw [5 x [4096 x i8]], ptr @g_step_cgpath, i64 0, i64 %3
  %42 = getelementptr inbounds nuw [5 x [4096 x i8]], ptr @g_user_cgpath, i64 0, i64 %3
  %43 = tail call i32 @xcgroup_create_hierarchy(ptr noundef nonnull @__func__.cgroup_p_step_create, ptr noundef %1, ptr noundef nonnull %39, ptr noundef nonnull %4, ptr noundef nonnull %40, ptr noundef nonnull %41, ptr noundef nonnull %42) #11
  %.not57 = icmp eq i32 %43, 0
  br i1 %.not57, label %54, label %56

44:                                               ; preds = %8
  %45 = getelementptr inbounds nuw [5 x %struct.xcgroup_ns_t], ptr @g_cg_ns, i64 0, i64 %3
  %46 = getelementptr inbounds nuw [5 x [4096 x i8]], ptr @g_job_cgpath, i64 0, i64 %3
  %47 = getelementptr inbounds nuw [5 x [4096 x i8]], ptr @g_step_cgpath, i64 0, i64 %3
  %48 = getelementptr inbounds nuw [5 x [4096 x i8]], ptr @g_user_cgpath, i64 0, i64 %3
  %49 = tail call i32 @xcgroup_create_hierarchy(ptr noundef nonnull @__func__.cgroup_p_step_create, ptr noundef %1, ptr noundef nonnull %45, ptr noundef nonnull %4, ptr noundef nonnull %46, ptr noundef nonnull %47, ptr noundef nonnull %48) #11
  %.not56 = icmp eq i32 %49, 0
  br i1 %.not56, label %54, label %56

50:                                               ; preds = %8
  %51 = tail call i32 (ptr, ...) @error(ptr noundef nonnull @.str.9, i32 noundef %0) #11
  br label %56

.sink.split:                                      ; preds = %29, %26, %35
  %.sink = phi ptr [ %37, %35 ], [ %24, %26 ], [ %22, %29 ]
  %.1.ph = phi i32 [ 1, %35 ], [ %28, %26 ], [ %31, %29 ]
  %52 = tail call i32 (ptr, ...) @error(ptr noundef nonnull @.str.20, ptr noundef %.sink) #11
  %53 = tail call fastcc i32 @_step_destroy_internal(i32 noundef 2, i1 noundef zeroext true)
  br label %54

54:                                               ; preds = %.sink.split, %44, %38, %32, %18, %12
  %.1 = phi i32 [ 0, %44 ], [ 0, %38 ], [ 0, %32 ], [ 0, %18 ], [ 0, %12 ], [ %.1.ph, %.sink.split ]
  %55 = tail call i32 @common_cgroup_unlock(ptr noundef nonnull %4) #11
  br label %60

56:                                               ; preds = %44, %38, %20, %18, %12, %50
  %.0 = phi i32 [ -1, %50 ], [ %49, %44 ], [ %43, %38 ], [ %25, %20 ], [ %19, %18 ], [ %17, %12 ]
  %57 = tail call i32 @common_cgroup_unlock(ptr noundef nonnull %4) #11
  %58 = load i16, ptr %9, align 2
  %59 = add i16 %58, -1
  store i16 %59, ptr %9, align 2
  br label %60

60:                                               ; preds = %56, %54, %6
  %.043 = phi i32 [ -1, %6 ], [ %.0, %56 ], [ %.1, %54 ]
  ret i32 %.043
}